target datalayout = "e-m:e-p270:32:32-p271:32:32-p272:64:64-i64:64-i128:128-f80:128-n8:16:32:64-S128"
target triple = "x86_64-pc-linux-gnu"

%struct.AVRational = type { i32, i32 }
%struct.AVFrame = type { [8 x ptr], [8 x i32], ptr, i32, i32, i32, i32, i32, %struct.AVRational, i64, i64, %struct.AVRational, i32, ptr, i32, i32, [8 x ptr], ptr, i32, ptr, i32, i32, i32, i32, i32, i32, i32, i64, ptr, i32, ptr, ptr, i64, i64, i64, i64, ptr, %struct.AVChannelLayout, i64 }
%struct.AVChannelLayout = type { i32, i32, %union.anon, ptr }
%union.anon = type { i64 }

; Function Attrs: nounwind uwtable
define i32 @av_frame_is_writable(ptr noundef %0) #0 {
  %2 = alloca i32, align 4
  %3 = alloca ptr, align 8
  %4 = alloca i32, align 4
  %5 = alloca i32, align 4
  %6 = alloca i32, align 4
  %7 = alloca i32, align 4
  store ptr %0, ptr %3, align 8, !tbaa !4
  call void @llvm.lifetime.start.p0(i64 4, ptr %4) #7
  store i32 1, ptr %4, align 4, !tbaa !27
  %8 = load ptr, ptr %3, align 8, !tbaa !4
  %9 = getelementptr inbounds nuw %struct.AVFrame, ptr %8, i32 0, i32 16
  %10 = getelementptr inbounds [8 x ptr], ptr %9, i64 0, i64 0
  %11 = load ptr, ptr %10, align 8, !tbaa !53
  %12 = icmp ne ptr %11, null
  br i1 %12, label %14, label %13

13:                                               ; preds = %1
  store i32 0, ptr %2, align 4
  store i32 1, ptr %5, align 4
  br label %74

14:                                               ; preds = %1
  call void @llvm.lifetime.start.p0(i64 4, ptr %6) #7
  store i32 0, ptr %6, align 4, !tbaa !27
  br label %15

15:                                               ; preds = %43, %14
  %16 = load i32, ptr %6, align 4, !tbaa !27
  %17 = sext i32 %16 to i64
  %18 = icmp ult i64 %17, 8
  br i1 %18, label %20, label %19

19:                                               ; preds = %15
  store i32 2, ptr %5, align 4
  call void @llvm.lifetime.end.p0(i64 4, ptr %6) #7
  br label %46

20:                                               ; preds = %15
  %21 = load ptr, ptr %3, align 8, !tbaa !4
  %22 = getelementptr inbounds nuw %struct.AVFrame, ptr %21, i32 0, i32 16
  %23 = load i32, ptr %6, align 4, !tbaa !27
  %24 = sext i32 %23 to i64
  %25 = getelementptr inbounds [8 x ptr], ptr %22, i64 0, i64 %24
  %26 = load ptr, ptr %25, align 8, !tbaa !53
  %27 = icmp ne ptr %26, null
  br i1 %27, label %28, label %42

28:                                               ; preds = %20
  %29 = load ptr, ptr %3, align 8, !tbaa !4
  %30 = getelementptr inbounds nuw %struct.AVFrame, ptr %29, i32 0, i32 16
  %31 = load i32, ptr %6, align 4, !tbaa !27
  %32 = sext i32 %31 to i64
  %33 = getelementptr inbounds [8 x ptr], ptr %30, i64 0, i64 %32
  %34 = load ptr, ptr %33, align 8, !tbaa !53
  %35 = call i32 @av_buffer_is_writable(ptr noundef %34)
  %36 = icmp ne i32 %35, 0
  %37 = xor i1 %36, true
  %38 = xor i1 %37, true
  %39 = zext i1 %38 to i32
  %40 = load i32, ptr %4, align 4, !tbaa !27
  %41 = and i32 %40, %39
  store i32 %41, ptr %4, align 4, !tbaa !27
  br label %42

42:                                               ; preds = %28, %20
  br label %43

43:                                               ; preds = %42
  %44 = load i32, ptr %6, align 4, !tbaa !27
  %45 = add nsw i32 %44, 1
  store i32 %45, ptr %6, align 4, !tbaa !27
  br label %15, !llvm.loop !101

46:                                               ; preds = %19
  call void @llvm.lifetime.start.p0(i64 4, ptr %7) #7
  store i32 0, ptr %7, align 4, !tbaa !27
  br label %47

47:                                               ; preds = %69, %46
  %48 = load i32, ptr %7, align 4, !tbaa !27
  %49 = load ptr, ptr %3, align 8, !tbaa !4
  %50 = getelementptr inbounds nuw %struct.AVFrame, ptr %49, i32 0, i32 18
  %51 = load i32, ptr %50, align 8, !tbaa !40
  %52 = icmp slt i32 %48, %51
  br i1 %52, label %54, label %53

53:                                               ; preds = %47
  store i32 5, ptr %5, align 4
  call void @llvm.lifetime.end.p0(i64 4, ptr %7) #7
  br label %72

54:                                               ; preds = %47
  %55 = load ptr, ptr %3, align 8, !tbaa !4
  %56 = getelementptr inbounds nuw %struct.AVFrame, ptr %55, i32 0, i32 17
  %57 = load ptr, ptr %56, align 8, !tbaa !41
  %58 = load i32, ptr %7, align 4, !tbaa !27
  %59 = sext i32 %58 to i64
  %60 = getelementptr inbounds ptr, ptr %57, i64 %59
  %61 = load ptr, ptr %60, align 8, !tbaa !53
  %62 = call i32 @av_buffer_is_writable(ptr noundef %61)
  %63 = icmp ne i32 %62, 0
  %64 = xor i1 %63, true
  %65 = xor i1 %64, true
  %66 = zext i1 %65 to i32
  %67 = load i32, ptr %4, align 4, !tbaa !27
  %68 = and i32 %67, %66
  store i32 %68, ptr %4, align 4, !tbaa !27
  br label %69

69:                                               ; preds = %54
  %70 = load i32, ptr %7, align 4, !tbaa !27
  %71 = add nsw i32 %70, 1
  store i32 %71, ptr %7, align 4, !tbaa !27
  br label %47, !llvm.loop !102

72:                                               ; preds = %53
  %73 = load i32, ptr %4, align 4, !tbaa !27
  store i32 %73, ptr %2, align 4
  store i32 1, ptr %5, align 4
  br label %74

74:                                               ; preds = %72, %13
  call void @llvm.lifetime.end.p0(i64 4, ptr %4) #7
  %75 = load i32, ptr %2, align 4
  ret i32 %75
}