; Function Attrs: nounwind uwtable
define range(i32 0, 2) i32 @av_frame_is_writable(ptr noundef readonly captures(none) %0) local_unnamed_addr #0 {
  %2 = getelementptr inbounds nuw i8, ptr %0, i64 184
  %3 = load ptr, ptr %2, align 8, !tbaa !42
  %.not = icmp eq ptr %3, null
  br i1 %.not, label %.loopexit, label %.preheader23

.preheader:                                       ; preds = %15
  %4 = getelementptr inbounds nuw i8, ptr %0, i64 256
  %5 = load i32, ptr %4, align 8, !tbaa !30
  %6 = icmp sgt i32 %5, 0
  br i1 %6, label %.lr.ph, label %.loopexit

.lr.ph:                                           ; preds = %.preheader
  %7 = getelementptr inbounds nuw i8, ptr %0, i64 248
  %8 = and i32 %.1, 1
  br label %16

.preheader23:                                     ; preds = %1, %15
  %indvars.iv = phi i64 [ %indvars.iv.next, %15 ], [ 0, %1 ]
  %.01624 = phi i32 [ %.1, %15 ], [ 1, %1 ]
  %9 = getelementptr inbounds nuw [8 x ptr], ptr %2, i64 0, i64 %indvars.iv
  %10 = load ptr, ptr %9, align 8, !tbaa !42
  %.not21 = icmp eq ptr %10, null
  br i1 %.not21, label %15, label %11

11:                                               ; preds = %.preheader23
  %12 = tail call i32 @av_buffer_is_writable(ptr noundef nonnull %10) #8
  %.not22 = icmp eq i32 %12, 0
  %13 = and i32 %.01624, 1
  %14 = select i1 %.not22, i32 0, i32 %13
  br label %15

15:                                               ; preds = %.preheader23, %11
  %.1 = phi i32 [ %14, %11 ], [ %.01624, %.preheader23 ]
  %indvars.iv.next = add nuw nsw i64 %indvars.iv, 1
  %exitcond.not = icmp eq i64 %indvars.iv.next, 8
  br i1 %exitcond.not, label %.preheader, label %.preheader23, !llvm.loop !96

16:                                               ; preds = %.lr.ph, %16
  %indvars.iv29 = phi i64 [ 0, %.lr.ph ], [ %indvars.iv.next30, %16 ]
  %.226 = phi i32 [ %8, %.lr.ph ], [ %21, %16 ]
  %17 = load ptr, ptr %7, align 8, !tbaa !33
  %18 = getelementptr inbounds nuw ptr, ptr %17, i64 %indvars.iv29
  %19 = load ptr, ptr %18, align 8, !tbaa !42
  %20 = tail call i32 @av_buffer_is_writable(ptr noundef %19) #8
  %.not20 = icmp eq i32 %20, 0
  %21 = select i1 %.not20, i32 0, i32 %.226
  %indvars.iv.next30 = add nuw nsw i64 %indvars.iv29, 1
  %22 = load i32, ptr %4, align 8, !tbaa !30
  %23 = sext i32 %22 to i64
  %24 = icmp slt i64 %indvars.iv.next30, %23
  br i1 %24, label %16, label %.loopexit, !llvm.loop !97

.loopexit:                                        ; preds = %16, %.preheader, %1
  %.017 = phi i32 [ 0, %1 ], [ %.1, %.preheader ], [ %21, %16 ]
  ret i32 %.017
}